target datalayout = "e-m:e-p270:32:32-p271:32:32-p272:64:64-i64:64-i128:128-f80:128-n8:16:32:64-S128"
target triple = "x86_64-pc-linux-gnu"

%struct.OpusRangeCoder = type { %struct.GetBitContext, %struct.RawBitsContext, i32, i32, i32, [1287 x i8], ptr, i32, i32, i32 }
%struct.GetBitContext = type { ptr, ptr, i32, i32, i32 }
%struct.RawBitsContext = type { ptr, i32, i32, i32 }

; Function Attrs: alwaysinline nounwind willreturn memory(none) uwtable
define internal i32 @av_bswap32(i32 noundef %0) #3 {
  %2 = alloca i32, align 4
  store i32 %0, ptr %2, align 4, !tbaa !13
  %3 = load i32, ptr %2, align 4, !tbaa !13
  %4 = shl i32 %3, 8
  %5 = and i32 %4, 65280
  %6 = load i32, ptr %2, align 4, !tbaa !13
  %7 = lshr i32 %6, 8
  %8 = and i32 %7, 255
  %9 = or i32 %5, %8
  %10 = shl i32 %9, 16
  %11 = load i32, ptr %2, align 4, !tbaa !13
  %12 = lshr i32 %11, 16
  %13 = shl i32 %12, 8
  %14 = and i32 %13, 65280
  %15 = load i32, ptr %2, align 4, !tbaa !13
  %16 = lshr i32 %15, 16
  %17 = lshr i32 %16, 8
  %18 = and i32 %17, 255
  %19 = or i32 %14, %18
  %20 = or i32 %10, %19
  ret i32 %20
}

; Function Attrs: inlinehint nounwind uwtable
define internal i32 @get_bits(ptr noundef %0, i32 noundef %1) #7 {
  %3 = alloca ptr, align 8
  %4 = alloca i32, align 4
  %5 = alloca i32, align 4
  %6 = alloca i32, align 4
  %7 = alloca i32, align 4
  %8 = alloca i32, align 4
  store ptr %0, ptr %3, align 8, !tbaa !37
  store i32 %1, ptr %4, align 4, !tbaa !13
  call void @llvm.lifetime.start.p0(i64 4, ptr %5) #9
  call void @llvm.lifetime.start.p0(i64 4, ptr %6) #9
  %9 = load ptr, ptr %3, align 8, !tbaa !37
  %10 = getelementptr inbounds nuw %struct.GetBitContext, ptr %9, i32 0, i32 2
  %11 = load i32, ptr %10, align 8, !tbaa !39
  store i32 %11, ptr %6, align 4, !tbaa !13
  call void @llvm.lifetime.start.p0(i64 4, ptr %7) #9
  call void @llvm.lifetime.start.p0(i64 4, ptr %8) #9
  %12 = load ptr, ptr %3, align 8, !tbaa !37
  %13 = getelementptr inbounds nuw %struct.GetBitContext, ptr %12, i32 0, i32 4
  %14 = load i32, ptr %13, align 8, !tbaa !40
  store i32 %14, ptr %8, align 4, !tbaa !13
  %15 = load ptr, ptr %3, align 8, !tbaa !37
  %16 = getelementptr inbounds nuw %struct.GetBitContext, ptr %15, i32 0, i32 0
  %17 = load ptr, ptr %16, align 8, !tbaa !41
  %18 = load i32, ptr %6, align 4, !tbaa !13
  %19 = lshr i32 %18, 3
  %20 = zext i32 %19 to i64
  %21 = getelementptr inbounds nuw i8, ptr %17, i64 %20
  %22 = load i32, ptr %21, align 1, !tbaa !28
  %23 = call i32 @av_bswap32(i32 noundef %22) #10
  %24 = load i32, ptr %6, align 4, !tbaa !13
  %25 = and i32 %24, 7
  %26 = shl i32 %23, %25
  %27 = lshr i32 %26, 0
  store i32 %27, ptr %7, align 4, !tbaa !13
  %28 = load i32, ptr %7, align 4, !tbaa !13
  %29 = load i32, ptr %4, align 4, !tbaa !13
  %30 = sub nsw i32 32, %29
  %31 = lshr i32 %28, %30
  store i32 %31, ptr %5, align 4, !tbaa !13
  %32 = load i32, ptr %8, align 4, !tbaa !13
  %33 = load i32, ptr %6, align 4, !tbaa !13
  %34 = load i32, ptr %4, align 4, !tbaa !13
  %35 = add i32 %33, %34
  %36 = icmp ugt i32 %32, %35
  br i1 %36, label %37, label %41

37:                                               ; preds = %2
  %38 = load i32, ptr %6, align 4, !tbaa !13
  %39 = load i32, ptr %4, align 4, !tbaa !13
  %40 = add i32 %38, %39
  br label %43

41:                                               ; preds = %2
  %42 = load i32, ptr %8, align 4, !tbaa !13
  br label %43

43:                                               ; preds = %41, %37
  %44 = phi i32 [ %40, %37 ], [ %42, %41 ]
  store i32 %44, ptr %6, align 4, !tbaa !13
  %45 = load i32, ptr %6, align 4, !tbaa !13
  %46 = load ptr, ptr %3, align 8, !tbaa !37
  %47 = getelementptr inbounds nuw %struct.GetBitContext, ptr %46, i32 0, i32 2
  store i32 %45, ptr %47, align 8, !tbaa !39
  %48 = load i32, ptr %5, align 4, !tbaa !13
  call void @llvm.lifetime.end.p0(i64 4, ptr %8) #9
  call void @llvm.lifetime.end.p0(i64 4, ptr %7) #9
  call void @llvm.lifetime.end.p0(i64 4, ptr %6) #9
  call void @llvm.lifetime.end.p0(i64 4, ptr %5) #9
  ret i32 %48
}

; Function Attrs: alwaysinline nounwind uwtable
define internal void @opus_rc_dec_normalize(ptr noundef %0) #2 {
  %2 = alloca ptr, align 8
  store ptr %0, ptr %2, align 8, !tbaa !4
  br label %3

3:                                                ; preds = %8, %1
  %4 = load ptr, ptr %2, align 8, !tbaa !4
  %5 = getelementptr inbounds nuw %struct.OpusRangeCoder, ptr %4, i32 0, i32 2
  %6 = load i32, ptr %5, align 8, !tbaa !15
  %7 = icmp ule i32 %6, 8388608
  br i1 %7, label %8, label %29

8:                                                ; preds = %3
  %9 = load ptr, ptr %2, align 8, !tbaa !4
  %10 = getelementptr inbounds nuw %struct.OpusRangeCoder, ptr %9, i32 0, i32 3
  %11 = load i32, ptr %10, align 4, !tbaa !20
  %12 = shl i32 %11, 8
  %13 = load ptr, ptr %2, align 8, !tbaa !4
  %14 = getelementptr inbounds nuw %struct.OpusRangeCoder, ptr %13, i32 0, i32 0
  %15 = call i32 @get_bits(ptr noundef %14, i32 noundef 8)
  %16 = xor i32 %15, 255
  %17 = or i32 %12, %16
  %18 = and i32 %17, 2147483647
  %19 = load ptr, ptr %2, align 8, !tbaa !4
  %20 = getelementptr inbounds nuw %struct.OpusRangeCoder, ptr %19, i32 0, i32 3
  store i32 %18, ptr %20, align 4, !tbaa !20
  %21 = load ptr, ptr %2, align 8, !tbaa !4
  %22 = getelementptr inbounds nuw %struct.OpusRangeCoder, ptr %21, i32 0, i32 2
  %23 = load i32, ptr %22, align 8, !tbaa !15
  %24 = shl i32 %23, 8
  store i32 %24, ptr %22, align 8, !tbaa !15
  %25 = load ptr, ptr %2, align 8, !tbaa !4
  %26 = getelementptr inbounds nuw %struct.OpusRangeCoder, ptr %25, i32 0, i32 4
  %27 = load i32, ptr %26, align 8, !tbaa !23
  %28 = add i32 %27, 8
  store i32 %28, ptr %26, align 8, !tbaa !23
  br label %3, !llvm.loop !24

29:                                               ; preds = %3
  ret void
}

; Function Attrs: alwaysinline nounwind uwtable
define internal void @opus_rc_dec_update(ptr noundef %0, i32 noundef %1, i32 noundef %2, i32 noundef %3, i32 noundef %4) #2 {
  %6 = alloca ptr, align 8
  %7 = alloca i32, align 4
  %8 = alloca i32, align 4
  %9 = alloca i32, align 4
  %10 = alloca i32, align 4
  store ptr %0, ptr %6, align 8, !tbaa !4
  store i32 %1, ptr %7, align 4, !tbaa !13
  store i32 %2, ptr %8, align 4, !tbaa !13
  store i32 %3, ptr %9, align 4, !tbaa !13
  store i32 %4, ptr %10, align 4, !tbaa !13
  %11 = load i32, ptr %7, align 4, !tbaa !13
  %12 = load i32, ptr %10, align 4, !tbaa !13
  %13 = load i32, ptr %9, align 4, !tbaa !13
  %14 = sub i32 %12, %13
  %15 = mul i32 %11, %14
  %16 = load ptr, ptr %6, align 8, !tbaa !4
  %17 = getelementptr inbounds nuw %struct.OpusRangeCoder, ptr %16, i32 0, i32 3
  %18 = load i32, ptr %17, align 4, !tbaa !20
  %19 = sub i32 %18, %15
  store i32 %19, ptr %17, align 4, !tbaa !20
  %20 = load i32, ptr %8, align 4, !tbaa !13
  %21 = icmp ne i32 %20, 0
  br i1 %21, label %22, label %28

22:                                               ; preds = %5
  %23 = load i32, ptr %7, align 4, !tbaa !13
  %24 = load i32, ptr %9, align 4, !tbaa !13
  %25 = load i32, ptr %8, align 4, !tbaa !13
  %26 = sub i32 %24, %25
  %27 = mul i32 %23, %26
  br label %38

28:                                               ; preds = %5
  %29 = load ptr, ptr %6, align 8, !tbaa !4
  %30 = getelementptr inbounds nuw %struct.OpusRangeCoder, ptr %29, i32 0, i32 2
  %31 = load i32, ptr %30, align 8, !tbaa !15
  %32 = load i32, ptr %7, align 4, !tbaa !13
  %33 = load i32, ptr %10, align 4, !tbaa !13
  %34 = load i32, ptr %9, align 4, !tbaa !13
  %35 = sub i32 %33, %34
  %36 = mul i32 %32, %35
  %37 = sub i32 %31, %36
  br label %38

38:                                               ; preds = %28, %22
  %39 = phi i32 [ %27, %22 ], [ %37, %28 ]
  %40 = load ptr, ptr %6, align 8, !tbaa !4
  %41 = getelementptr inbounds nuw %struct.OpusRangeCoder, ptr %40, i32 0, i32 2
  store i32 %39, ptr %41, align 8, !tbaa !15
  %42 = load ptr, ptr %6, align 8, !tbaa !4
  call void @opus_rc_dec_normalize(ptr noundef %42)
  ret void
}

; Function Attrs: nounwind uwtable
define i32 @ff_opus_rc_dec_laplace(ptr noundef %0, i32 noundef %1, i32 noundef %2) #0 {
  %4 = alloca ptr, align 8
  %5 = alloca i32, align 4
  %6 = alloca i32, align 4
  %7 = alloca i32, align 4
  %8 = alloca i32, align 4
  %9 = alloca i32, align 4
  %10 = alloca i32, align 4
  %11 = alloca i32, align 4
  store ptr %0, ptr %4, align 8, !tbaa !4
  store i32 %1, ptr %5, align 4, !tbaa !13
  store i32 %2, ptr %6, align 4, !tbaa !13
  call void @llvm.lifetime.start.p0(i64 4, ptr %7) #9
  store i32 0, ptr %7, align 4, !tbaa !13
  call void @llvm.lifetime.start.p0(i64 4, ptr %8) #9
  call void @llvm.lifetime.start.p0(i64 4, ptr %9) #9
  store i32 0, ptr %9, align 4, !tbaa !13
  call void @llvm.lifetime.start.p0(i64 4, ptr %10) #9
  %12 = load ptr, ptr %4, align 8, !tbaa !4
  %13 = getelementptr inbounds nuw %struct.OpusRangeCoder, ptr %12, i32 0, i32 2
  %14 = load i32, ptr %13, align 8, !tbaa !15
  %15 = lshr i32 %14, 15
  store i32 %15, ptr %8, align 4, !tbaa !13
  %16 = load ptr, ptr %4, align 8, !tbaa !4
  %17 = getelementptr inbounds nuw %struct.OpusRangeCoder, ptr %16, i32 0, i32 3
  %18 = load i32, ptr %17, align 4, !tbaa !20
  %19 = load i32, ptr %8, align 4, !tbaa !13
  %20 = udiv i32 %18, %19
  %21 = add i32 %20, 1
  store i32 %21, ptr %10, align 4, !tbaa !13
  %22 = load i32, ptr %10, align 4, !tbaa !13
  %23 = icmp ugt i32 %22, 32768
  br i1 %23, label %24, label %25

24:                                               ; preds = %3
  br label %27

25:                                               ; preds = %3
  %26 = load i32, ptr %10, align 4, !tbaa !13
  br label %27

27:                                               ; preds = %25, %24
  %28 = phi i32 [ 32768, %24 ], [ %26, %25 ]
  %29 = sub i32 32768, %28
  store i32 %29, ptr %10, align 4, !tbaa !13
  %30 = load i32, ptr %10, align 4, !tbaa !13
  %31 = load i32, ptr %5, align 4, !tbaa !13
  %32 = icmp uge i32 %30, %31
  br i1 %32, label %33, label %99

33:                                               ; preds = %27
  %34 = load i32, ptr %7, align 4, !tbaa !13
  %35 = add nsw i32 %34, 1
  store i32 %35, ptr %7, align 4, !tbaa !13
  %36 = load i32, ptr %5, align 4, !tbaa !13
  store i32 %36, ptr %9, align 4, !tbaa !13
  %37 = load i32, ptr %5, align 4, !tbaa !13
  %38 = sub i32 32736, %37
  %39 = load i32, ptr %6, align 4, !tbaa !13
  %40 = sub nsw i32 16384, %39
  %41 = mul i32 %38, %40
  %42 = lshr i32 %41, 15
  %43 = add i32 1, %42
  store i32 %43, ptr %5, align 4, !tbaa !13
  br label %44

44:                                               ; preds = %56, %33
  %45 = load i32, ptr %5, align 4, !tbaa !13
  %46 = icmp ugt i32 %45, 1
  br i1 %46, label %47, label %54

47:                                               ; preds = %44
  %48 = load i32, ptr %10, align 4, !tbaa !13
  %49 = load i32, ptr %9, align 4, !tbaa !13
  %50 = load i32, ptr %5, align 4, !tbaa !13
  %51 = mul i32 2, %50
  %52 = add i32 %49, %51
  %53 = icmp uge i32 %48, %52
  br label %54

54:                                               ; preds = %47, %44
  %55 = phi i1 [ false, %44 ], [ %53, %47 ]
  br i1 %55, label %56, label %70

56:                                               ; preds = %54
  %57 = load i32, ptr %7, align 4, !tbaa !13
  %58 = add nsw i32 %57, 1
  store i32 %58, ptr %7, align 4, !tbaa !13
  %59 = load i32, ptr %5, align 4, !tbaa !13
  %60 = mul i32 %59, 2
  store i32 %60, ptr %5, align 4, !tbaa !13
  %61 = load i32, ptr %5, align 4, !tbaa !13
  %62 = load i32, ptr %9, align 4, !tbaa !13
  %63 = add i32 %62, %61
  store i32 %63, ptr %9, align 4, !tbaa !13
  %64 = load i32, ptr %5, align 4, !tbaa !13
  %65 = sub i32 %64, 2
  %66 = load i32, ptr %6, align 4, !tbaa !13
  %67 = mul i32 %65, %66
  %68 = lshr i32 %67, 15
  %69 = add i32 %68, 1
  store i32 %69, ptr %5, align 4, !tbaa !13
  br label %44, !llvm.loop !32

70:                                               ; preds = %54
  %71 = load i32, ptr %5, align 4, !tbaa !13
  %72 = icmp ule i32 %71, 1
  br i1 %72, label %73, label %85

73:                                               ; preds = %70
  call void @llvm.lifetime.start.p0(i64 4, ptr %11) #9
  %74 = load i32, ptr %10, align 4, !tbaa !13
  %75 = load i32, ptr %9, align 4, !tbaa !13
  %76 = sub i32 %74, %75
  %77 = lshr i32 %76, 1
  store i32 %77, ptr %11, align 4, !tbaa !13
  %78 = load i32, ptr %11, align 4, !tbaa !13
  %79 = load i32, ptr %7, align 4, !tbaa !13
  %80 = add nsw i32 %79, %78
  store i32 %80, ptr %7, align 4, !tbaa !13
  %81 = load i32, ptr %11, align 4, !tbaa !13
  %82 = mul nsw i32 2, %81
  %83 = load i32, ptr %9, align 4, !tbaa !13
  %84 = add i32 %83, %82
  store i32 %84, ptr %9, align 4, !tbaa !13
  call void @llvm.lifetime.end.p0(i64 4, ptr %11) #9
  br label %85

85:                                               ; preds = %73, %70
  %86 = load i32, ptr %10, align 4, !tbaa !13
  %87 = load i32, ptr %9, align 4, !tbaa !13
  %88 = load i32, ptr %5, align 4, !tbaa !13
  %89 = add i32 %87, %88
  %90 = icmp ult i32 %86, %89
  br i1 %90, label %91, label %94

91:                                               ; preds = %85
  %92 = load i32, ptr %7, align 4, !tbaa !13
  %93 = mul nsw i32 %92, -1
  store i32 %93, ptr %7, align 4, !tbaa !13
  br label %98

94:                                               ; preds = %85
  %95 = load i32, ptr %5, align 4, !tbaa !13
  %96 = load i32, ptr %9, align 4, !tbaa !13
  %97 = add i32 %96, %95
  store i32 %97, ptr %9, align 4, !tbaa !13
  br label %98

98:                                               ; preds = %94, %91
  br label %99

99:                                               ; preds = %98, %27
  %100 = load ptr, ptr %4, align 8, !tbaa !4
  %101 = load i32, ptr %8, align 4, !tbaa !13
  %102 = load i32, ptr %9, align 4, !tbaa !13
  %103 = load i32, ptr %9, align 4, !tbaa !13
  %104 = load i32, ptr %5, align 4, !tbaa !13
  %105 = add i32 %103, %104
  %106 = icmp ugt i32 %105, 32768
  br i1 %106, label %107, label %108

107:                                              ; preds = %99
  br label %112

108:                                              ; preds = %99
  %109 = load i32, ptr %9, align 4, !tbaa !13
  %110 = load i32, ptr %5, align 4, !tbaa !13
  %111 = add i32 %109, %110
  br label %112

112:                                              ; preds = %108, %107
  %113 = phi i32 [ 32768, %107 ], [ %111, %108 ]
  call void @opus_rc_dec_update(ptr noundef %100, i32 noundef %101, i32 noundef %102, i32 noundef %113, i32 noundef 32768)
  %114 = load i32, ptr %7, align 4, !tbaa !13
  call void @llvm.lifetime.end.p0(i64 4, ptr %10) #9
  call void @llvm.lifetime.end.p0(i64 4, ptr %9) #9
  call void @llvm.lifetime.end.p0(i64 4, ptr %8) #9
  call void @llvm.lifetime.end.p0(i64 4, ptr %7) #9
  ret i32 %114
}